target datalayout = "e-m:e-p270:32:32-p271:32:32-p272:64:64-i64:64-i128:128-f80:128-n8:16:32:64-S128"
target triple = "x86_64-pc-linux-gnu"

%struct._packet_info = type { ptr, ptr, i32, i32, %struct.nstime_t, %struct.nstime_t, %struct.nstime_t, i8, ptr, ptr, ptr, ptr, %struct._address, %struct._address, %struct._address, %struct._address, %struct._address, %struct._address, i32, ptr, i8, [3 x i8], %struct.anon, i32, i32, i32, i32, ptr, i8, ptr, ptr, i16, i16, i32, i32, i16, i32, i32, ptr, ptr, ptr, i8, i8, i16, i16, i16, i32, i16, i16, ptr, ptr, ptr, ptr, ptr, i32, i32 }
%struct.nstime_t = type { i64, i32 }
%struct._address = type { i32, i32, ptr, ptr }
%struct.anon = type { i8, [3 x i8] }

@hf_edonkey_message = internal global i32 0, align 4
@hf_edonkey_protocol = internal global i32 0, align 4
@hf_edonkey_message_length = internal global i32 0, align 4
@hf_edonkey_message_type = internal global i32 0, align 4
@hf_emule_zlib = internal global i32 0, align 4
@ett_edonkey = internal global i32 0, align 4
@ett_edonkey_message = internal global i32 0, align 4
@ett_emule_zlib = internal global i32 0, align 4
@proto_edonkey = internal global i32 0, align 4
@.str.293 = private unnamed_addr constant [8 x i8] c"eDonkey\00", align 1
@.str.363 = private unnamed_addr constant [8 x i8] c"Unknown\00", align 1
@.str.364 = private unnamed_addr constant [3 x i8] c", \00", align 1
@.str.365 = private unnamed_addr constant [7 x i8] c"%s TCP\00", align 1
@.str.366 = private unnamed_addr constant [5 x i8] c": %s\00", align 1
@.str.367 = private unnamed_addr constant [12 x i8] c"%s (0x%02x)\00", align 1
@.str.368 = private unnamed_addr constant [18 x i8] c"Decompressed Data\00", align 1

; Function Attrs: null_pointer_is_valid sspstrong uwtable
define internal i32 @dissect_edonkey_tcp_pdu(ptr noundef %0, ptr noundef %1, ptr noundef %2, ptr noundef %3) #0 {
  %5 = alloca ptr, align 8
  %6 = alloca ptr, align 8
  %7 = alloca ptr, align 8
  %8 = alloca ptr, align 8
  %9 = alloca ptr, align 8
  %10 = alloca ptr, align 8
  %11 = alloca ptr, align 8
  %12 = alloca ptr, align 8
  %13 = alloca i32, align 4
  %14 = alloca i8, align 1
  %15 = alloca i8, align 1
  %16 = alloca i32, align 4
  %17 = alloca ptr, align 8
  %18 = alloca ptr, align 8
  %19 = alloca ptr, align 8
  %20 = alloca ptr, align 8
  store ptr %0, ptr %5, align 8
  store ptr %1, ptr %6, align 8
  store ptr %2, ptr %7, align 8
  store ptr %3, ptr %8, align 8
  call void @llvm.lifetime.start.p0(i64 8, ptr %9) #6
  call void @llvm.lifetime.start.p0(i64 8, ptr %10) #6
  call void @llvm.lifetime.start.p0(i64 8, ptr %11) #6
  store ptr null, ptr %11, align 8
  call void @llvm.lifetime.start.p0(i64 8, ptr %12) #6
  store ptr null, ptr %12, align 8
  call void @llvm.lifetime.start.p0(i64 4, ptr %13) #6
  call void @llvm.lifetime.start.p0(i64 1, ptr %14) #6
  call void @llvm.lifetime.start.p0(i64 1, ptr %15) #6
  call void @llvm.lifetime.start.p0(i64 4, ptr %16) #6
  call void @llvm.lifetime.start.p0(i64 8, ptr %17) #6
  call void @llvm.lifetime.start.p0(i64 8, ptr %18) #6
  call void @llvm.lifetime.start.p0(i64 8, ptr %19) #6
  call void @llvm.lifetime.start.p0(i64 8, ptr %20) #6
  store ptr null, ptr %20, align 8
  %21 = load ptr, ptr %6, align 8
  %22 = getelementptr inbounds nuw %struct._packet_info, ptr %21, i32 0, i32 1
  %23 = load ptr, ptr %22, align 8
  call void @col_set_str(ptr noundef %23, i32 noundef 35, ptr noundef @.str.293)
  %24 = load ptr, ptr %7, align 8
  %25 = load i32, ptr @proto_edonkey, align 4
  %26 = load ptr, ptr %5, align 8
  %27 = call ptr @proto_tree_add_item(ptr noundef %24, i32 noundef %25, ptr noundef %26, i32 noundef 0, i32 noundef -1, i32 noundef 0)
  store ptr %27, ptr %9, align 8
  %28 = load ptr, ptr %9, align 8
  %29 = load i32, ptr @ett_edonkey, align 4
  %30 = call ptr @proto_item_add_subtree(ptr noundef %28, i32 noundef %29)
  store ptr %30, ptr %10, align 8
  store i32 0, ptr %13, align 4
  %31 = load ptr, ptr %5, align 8
  %32 = load i32, ptr %13, align 4
  %33 = call zeroext i8 @tvb_get_uint8(ptr noundef %31, i32 noundef %32)
  store i8 %33, ptr %14, align 1
  %34 = load ptr, ptr %5, align 8
  %35 = load i32, ptr %13, align 4
  %36 = add i32 %35, 1
  %37 = call i32 @tvb_get_letohl(ptr noundef %34, i32 noundef %36)
  store i32 %37, ptr %16, align 4
  %38 = load i8, ptr %14, align 1
  %39 = zext i8 %38 to i32
  %40 = call ptr @val_to_str_const(i32 noundef %39, ptr noundef @edonkey_protocols, ptr noundef @.str.363)
  store ptr %40, ptr %17, align 8
  %41 = load ptr, ptr %6, align 8
  %42 = getelementptr inbounds nuw %struct._packet_info, ptr %41, i32 0, i32 1
  %43 = load ptr, ptr %42, align 8
  %44 = load ptr, ptr %17, align 8
  call void (ptr, i32, ptr, ptr, ...) @col_append_sep_fstr(ptr noundef %43, i32 noundef 25, ptr noundef @.str.364, ptr noundef @.str.365, ptr noundef %44)
  %45 = load ptr, ptr %10, align 8
  %46 = icmp ne ptr %45, null
  br i1 %46, label %47, label %72

47:                                               ; preds = %4
  %48 = load ptr, ptr %10, align 8
  %49 = load i32, ptr @hf_edonkey_message, align 4
  %50 = load ptr, ptr %5, align 8
  %51 = load i32, ptr %13, align 4
  %52 = load i32, ptr %16, align 4
  %53 = add i32 5, %52
  %54 = call ptr @proto_tree_add_item(ptr noundef %48, i32 noundef %49, ptr noundef %50, i32 noundef %51, i32 noundef %53, i32 noundef 0)
  store ptr %54, ptr %9, align 8
  %55 = load ptr, ptr %9, align 8
  %56 = load i32, ptr @ett_edonkey_message, align 4
  %57 = call ptr @proto_item_add_subtree(ptr noundef %55, i32 noundef %56)
  store ptr %57, ptr %11, align 8
  %58 = load ptr, ptr %11, align 8
  %59 = load i32, ptr @hf_edonkey_protocol, align 4
  %60 = load ptr, ptr %5, align 8
  %61 = load i32, ptr %13, align 4
  %62 = load i8, ptr %14, align 1
  %63 = zext i8 %62 to i32
  %64 = call ptr @proto_tree_add_uint(ptr noundef %58, i32 noundef %59, ptr noundef %60, i32 noundef %61, i32 noundef 1, i32 noundef %63)
  %65 = load ptr, ptr %11, align 8
  %66 = load i32, ptr @hf_edonkey_message_length, align 4
  %67 = load ptr, ptr %5, align 8
  %68 = load i32, ptr %13, align 4
  %69 = add i32 %68, 1
  %70 = load i32, ptr %16, align 4
  %71 = call ptr @proto_tree_add_uint(ptr noundef %65, i32 noundef %66, ptr noundef %67, i32 noundef %69, i32 noundef 4, i32 noundef %70)
  br label %72

72:                                               ; preds = %47, %4
  %73 = load i32, ptr %13, align 4
  %74 = add i32 %73, 5
  store i32 %74, ptr %13, align 4
  %75 = load ptr, ptr %5, align 8
  %76 = load i32, ptr %13, align 4
  %77 = call zeroext i8 @tvb_get_uint8(ptr noundef %75, i32 noundef %76)
  store i8 %77, ptr %15, align 1
  %78 = load i8, ptr %14, align 1
  %79 = zext i8 %78 to i32
  switch i32 %79, label %106 [
    i32 227, label %80
    i32 197, label %84
    i32 212, label %91
  ]

80:                                               ; preds = %72
  %81 = load i8, ptr %15, align 1
  %82 = zext i8 %81 to i32
  %83 = call ptr @val_to_str_const(i32 noundef %82, ptr noundef @edonkey_tcp_msgs, ptr noundef @.str.363)
  store ptr %83, ptr %18, align 8
  store ptr @dissect_edonkey_tcp_message, ptr %19, align 8
  br label %107

84:                                               ; preds = %72
  %85 = load i8, ptr %15, align 1
  %86 = zext i8 %85 to i32
  %87 = load i8, ptr %15, align 1
  %88 = zext i8 %87 to i32
  %89 = call ptr @val_to_str_const(i32 noundef %88, ptr noundef @edonkey_tcp_msgs, ptr noundef @.str.363)
  %90 = call ptr @val_to_str_const(i32 noundef %86, ptr noundef @emule_tcp_msgs, ptr noundef %89)
  store ptr %90, ptr %18, align 8
  store ptr @dissect_emule_tcp_message, ptr %19, align 8
  br label %107

91:                                               ; preds = %72
  %92 = load i8, ptr %15, align 1
  %93 = zext i8 %92 to i32
  %94 = call ptr @val_to_str_const(i32 noundef %93, ptr noundef @edonkey_tcp_msgs, ptr noundef @.str.363)
  store ptr %94, ptr %18, align 8
  %95 = load ptr, ptr %5, align 8
  %96 = load ptr, ptr %5, align 8
  %97 = load i32, ptr %13, align 4
  %98 = add i32 %97, 1
  %99 = load i32, ptr %16, align 4
  %100 = sub i32 %99, 1
  %101 = call ptr @tvb_child_uncompress_zlib(ptr noundef %95, ptr noundef %96, i32 noundef %98, i32 noundef %100)
  store ptr %101, ptr %20, align 8
  %102 = load ptr, ptr %20, align 8
  %103 = icmp ne ptr %102, null
  br i1 %103, label %104, label %105

104:                                              ; preds = %91
  store ptr @dissect_edonkey_tcp_message, ptr %19, align 8
  br label %107

105:                                              ; preds = %91
  br label %106

106:                                              ; preds = %72, %105
  store ptr @.str.363, ptr %18, align 8
  store ptr null, ptr %19, align 8
  br label %107

107:                                              ; preds = %106, %104, %84, %80
  %108 = load ptr, ptr %6, align 8
  %109 = getelementptr inbounds nuw %struct._packet_info, ptr %108, i32 0, i32 1
  %110 = load ptr, ptr %109, align 8
  %111 = load ptr, ptr %18, align 8
  call void (ptr, i32, ptr, ...) @col_append_fstr(ptr noundef %110, i32 noundef 25, ptr noundef @.str.366, ptr noundef %111)
  %112 = load ptr, ptr %11, align 8
  %113 = icmp ne ptr %112, null
  br i1 %113, label %114, label %166

114:                                              ; preds = %107
  %115 = load ptr, ptr %11, align 8
  %116 = load i32, ptr @hf_edonkey_message_type, align 4
  %117 = load ptr, ptr %5, align 8
  %118 = load i32, ptr %13, align 4
  %119 = load i8, ptr %15, align 1
  %120 = zext i8 %119 to i32
  %121 = load ptr, ptr %18, align 8
  %122 = load i8, ptr %15, align 1
  %123 = zext i8 %122 to i32
  %124 = call ptr (ptr, i32, ptr, i32, i32, i32, ptr, ...) @proto_tree_add_uint_format_value(ptr noundef %115, i32 noundef %116, ptr noundef %117, i32 noundef %118, i32 noundef 1, i32 noundef %120, ptr noundef @.str.367, ptr noundef %121, i32 noundef %123)
  %125 = load ptr, ptr %19, align 8
  %126 = icmp ne ptr %125, null
  br i1 %126, label %127, label %165

127:                                              ; preds = %114
  %128 = load i32, ptr %16, align 4
  %129 = icmp ugt i32 %128, 1
  br i1 %129, label %130, label %165

130:                                              ; preds = %127
  %131 = load ptr, ptr %20, align 8
  %132 = icmp ne ptr %131, null
  br i1 %132, label %143, label %133

133:                                              ; preds = %130
  %134 = load ptr, ptr %19, align 8
  %135 = load i8, ptr %15, align 1
  %136 = load ptr, ptr %5, align 8
  %137 = load ptr, ptr %6, align 8
  %138 = load i32, ptr %13, align 4
  %139 = add i32 %138, 1
  %140 = load i32, ptr %16, align 4
  %141 = sub i32 %140, 1
  %142 = load ptr, ptr %11, align 8
  call void %134(i8 noundef zeroext %135, ptr noundef %136, ptr noundef %137, i32 noundef %139, i32 noundef %141, ptr noundef %142)
  br label %164

143:                                              ; preds = %130
  %144 = load ptr, ptr %11, align 8
  %145 = load i32, ptr @hf_emule_zlib, align 4
  %146 = load ptr, ptr %5, align 8
  %147 = load i32, ptr %13, align 4
  %148 = add i32 %147, 1
  %149 = load i32, ptr %16, align 4
  %150 = sub i32 %149, 1
  %151 = call ptr @proto_tree_add_item(ptr noundef %144, i32 noundef %145, ptr noundef %146, i32 noundef %148, i32 noundef %150, i32 noundef 0)
  store ptr %151, ptr %9, align 8
  %152 = load ptr, ptr %9, align 8
  %153 = load i32, ptr @ett_emule_zlib, align 4
  %154 = call ptr @proto_item_add_subtree(ptr noundef %152, i32 noundef %153)
  store ptr %154, ptr %12, align 8
  %155 = load ptr, ptr %6, align 8
  %156 = load ptr, ptr %20, align 8
  call void @add_new_data_source(ptr noundef %155, ptr noundef %156, ptr noundef @.str.368)
  %157 = load ptr, ptr %19, align 8
  %158 = load i8, ptr %15, align 1
  %159 = load ptr, ptr %20, align 8
  %160 = load ptr, ptr %6, align 8
  %161 = load ptr, ptr %20, align 8
  %162 = call i32 @tvb_captured_length(ptr noundef %161)
  %163 = load ptr, ptr %12, align 8
  call void %157(i8 noundef zeroext %158, ptr noundef %159, ptr noundef %160, i32 noundef 0, i32 noundef %162, ptr noundef %163)
  br label %164

164:                                              ; preds = %143, %133
  br label %165

165:                                              ; preds = %164, %127, %114
  br label %166

166:                                              ; preds = %165, %107
  %167 = load ptr, ptr %5, align 8
  %168 = call i32 @tvb_captured_length(ptr noundef %167)
  call void @llvm.lifetime.end.p0(i64 8, ptr %20) #6
  call void @llvm.lifetime.end.p0(i64 8, ptr %19) #6
  call void @llvm.lifetime.end.p0(i64 8, ptr %18) #6
  call void @llvm.lifetime.end.p0(i64 8, ptr %17) #6
  call void @llvm.lifetime.end.p0(i64 4, ptr %16) #6
  call void @llvm.lifetime.end.p0(i64 1, ptr %15) #6
  call void @llvm.lifetime.end.p0(i64 1, ptr %14) #6
  call void @llvm.lifetime.end.p0(i64 4, ptr %13) #6
  call void @llvm.lifetime.end.p0(i64 8, ptr %12) #6
  call void @llvm.lifetime.end.p0(i64 8, ptr %11) #6
  call void @llvm.lifetime.end.p0(i64 8, ptr %10) #6
  call void @llvm.lifetime.end.p0(i64 8, ptr %9) #6
  ret i32 %168
}