; Function Attrs: null_pointer_is_valid sspstrong uwtable
define internal i32 @dissect_edonkey_tcp_pdu(ptr noundef %0, ptr noundef %1, ptr noundef %2, ptr readnone captures(none) %3) #0 {
  %5 = getelementptr inbounds nuw i8, ptr %1, i64 8
  %6 = load ptr, ptr %5, align 8
  tail call void @col_set_str(ptr noundef %6, i32 noundef 35, ptr noundef nonnull @.str.293)
  %7 = load i32, ptr @proto_edonkey, align 4
  %8 = tail call ptr @proto_tree_add_item(ptr noundef %2, i32 noundef %7, ptr noundef %0, i32 noundef 0, i32 noundef -1, i32 noundef 0)
  %9 = load i32, ptr @ett_edonkey, align 4
  %10 = tail call ptr @proto_item_add_subtree(ptr noundef %8, i32 noundef %9)
  %11 = tail call zeroext i8 @tvb_get_uint8(ptr noundef %0, i32 noundef 0)
  %12 = tail call i32 @tvb_get_letohl(ptr noundef %0, i32 noundef 1)
  %13 = zext i8 %11 to i32
  %14 = tail call ptr @val_to_str_const(i32 noundef %13, ptr noundef nonnull @edonkey_protocols, ptr noundef nonnull @.str.363)
  %15 = load ptr, ptr %5, align 8
  tail call void (ptr, i32, ptr, ptr, ...) @col_append_sep_fstr(ptr noundef %15, i32 noundef 25, ptr noundef nonnull @.str.364, ptr noundef nonnull @.str.365, ptr noundef %14)
  %.not = icmp eq ptr %10, null
  br i1 %.not, label %26, label %16

16:                                               ; preds = %4
  %17 = load i32, ptr @hf_edonkey_message, align 4
  %18 = add i32 %12, 5
  %19 = tail call ptr @proto_tree_add_item(ptr noundef nonnull %10, i32 noundef %17, ptr noundef %0, i32 noundef 0, i32 noundef %18, i32 noundef 0)
  %20 = load i32, ptr @ett_edonkey_message, align 4
  %21 = tail call ptr @proto_item_add_subtree(ptr noundef %19, i32 noundef %20)
  %22 = load i32, ptr @hf_edonkey_protocol, align 4
  %23 = tail call ptr @proto_tree_add_uint(ptr noundef %21, i32 noundef %22, ptr noundef %0, i32 noundef 0, i32 noundef 1, i32 noundef %13)
  %24 = load i32, ptr @hf_edonkey_message_length, align 4
  %25 = tail call ptr @proto_tree_add_uint(ptr noundef %21, i32 noundef %24, ptr noundef %0, i32 noundef 1, i32 noundef 4, i32 noundef %12)
  br label %26

26:                                               ; preds = %16, %4
  %.073 = phi ptr [ %21, %16 ], [ null, %4 ]
  %27 = tail call zeroext i8 @tvb_get_uint8(ptr noundef %0, i32 noundef 5)
  switch i8 %11, label %40 [
    i8 -29, label %28
    i8 -59, label %31
    i8 -44, label %35
  ]

28:                                               ; preds = %26
  %29 = zext i8 %27 to i32
  %30 = tail call ptr @val_to_str_const(i32 noundef %29, ptr noundef nonnull @edonkey_tcp_msgs, ptr noundef nonnull @.str.363)
  br label %41

31:                                               ; preds = %26
  %32 = zext i8 %27 to i32
  %33 = tail call ptr @val_to_str_const(i32 noundef %32, ptr noundef nonnull @edonkey_tcp_msgs, ptr noundef nonnull @.str.363)
  %34 = tail call ptr @val_to_str_const(i32 noundef %32, ptr noundef nonnull @emule_tcp_msgs, ptr noundef %33)
  br label %41

35:                                               ; preds = %26
  %36 = zext i8 %27 to i32
  %37 = tail call ptr @val_to_str_const(i32 noundef %36, ptr noundef nonnull @edonkey_tcp_msgs, ptr noundef nonnull @.str.363)
  %38 = add i32 %12, -1
  %39 = tail call ptr @tvb_child_uncompress_zlib(ptr noundef %0, ptr noundef %0, i32 noundef 6, i32 noundef %38)
  %.not78 = icmp eq ptr %39, null
  br i1 %.not78, label %40, label %41

40:                                               ; preds = %35, %26
  br label %41

41:                                               ; preds = %35, %40, %31, %28
  %.072 = phi ptr [ @.str.363, %40 ], [ %34, %31 ], [ %30, %28 ], [ %37, %35 ]
  %42 = phi i1 [ false, %40 ], [ true, %31 ], [ true, %28 ], [ true, %35 ]
  %.071 = phi ptr [ null, %40 ], [ @dissect_emule_tcp_message, %31 ], [ @dissect_edonkey_tcp_message, %28 ], [ @dissect_edonkey_tcp_message, %35 ]
  %.1 = phi ptr [ null, %40 ], [ null, %31 ], [ null, %28 ], [ %39, %35 ]
  %43 = load ptr, ptr %5, align 8
  tail call void (ptr, i32, ptr, ...) @col_append_fstr(ptr noundef %43, i32 noundef 25, ptr noundef nonnull @.str.366, ptr noundef %.072)
  %.not79 = icmp eq ptr %.073, null
  br i1 %.not79, label %59, label %44

44:                                               ; preds = %41
  %45 = load i32, ptr @hf_edonkey_message_type, align 4
  %46 = zext i8 %27 to i32
  %47 = tail call ptr (ptr, i32, ptr, i32, i32, i32, ptr, ...) @proto_tree_add_uint_format_value(ptr noundef nonnull %.073, i32 noundef %45, ptr noundef %0, i32 noundef 5, i32 noundef 1, i32 noundef %46, ptr noundef nonnull @.str.367, ptr noundef %.072, i32 noundef %46)
  %48 = icmp ugt i32 %12, 1
  %or.cond = select i1 %42, i1 %48, i1 false
  br i1 %or.cond, label %49, label %59

49:                                               ; preds = %44
  %.not80 = icmp eq ptr %.1, null
  br i1 %.not80, label %50, label %52

50:                                               ; preds = %49
  %51 = add i32 %12, -1
  tail call void %.071(i8 noundef zeroext %27, ptr noundef %0, ptr noundef %1, i32 noundef 6, i32 noundef %51, ptr noundef nonnull %.073), !callees !8
  br label %59

52:                                               ; preds = %49
  %53 = load i32, ptr @hf_emule_zlib, align 4
  %54 = add i32 %12, -1
  %55 = tail call ptr @proto_tree_add_item(ptr noundef nonnull %.073, i32 noundef %53, ptr noundef %0, i32 noundef 6, i32 noundef %54, i32 noundef 0)
  %56 = load i32, ptr @ett_emule_zlib, align 4
  %57 = tail call ptr @proto_item_add_subtree(ptr noundef %55, i32 noundef %56)
  tail call void @add_new_data_source(ptr noundef %1, ptr noundef nonnull %.1, ptr noundef nonnull @.str.368)
  %58 = tail call i32 @tvb_captured_length(ptr noundef nonnull %.1)
  tail call void %.071(i8 noundef zeroext %27, ptr noundef nonnull %.1, ptr noundef %1, i32 noundef 0, i32 noundef %58, ptr noundef %57), !callees !8
  br label %59

59:                                               ; preds = %44, %52, %50, %41
  %60 = tail call i32 @tvb_captured_length(ptr noundef %0)
  ret i32 %60
}